; Function Attrs: mustprogress uwtable
define hidden void @_Z4ReadI9aiQuatKeyET_PN6Assimp8IOStreamE(ptr noalias nocapture writeonly sret(%struct.aiQuatKey) align 8 %agg.result, ptr noundef %stream) local_unnamed_addr #4 personality ptr @__gxx_personality_v0 {
entry:
  %t.i = alloca double, align 8
  store double 0.000000e+00, ptr %agg.result, align 8
  %mValue.i = getelementptr inbounds i8, ptr %agg.result, i64 8
  store <4 x float> <float 1.000000e+00, float 0.000000e+00, float 0.000000e+00, float 0.000000e+00>, ptr %mValue.i, align 8
  call void @llvm.lifetime.start.p0(i64 8, ptr nonnull %t.i)
  %vtable.i = load ptr, ptr %stream, align 8
  %vfn.i = getelementptr inbounds i8, ptr %vtable.i, i64 16
  %0 = load ptr, ptr %vfn.i, align 8
  %call.i = call noundef i64 %0(ptr noundef nonnull align 8 dereferenceable(8) %stream, ptr noundef nonnull %t.i, i64 noundef 8, i64 noundef 1)
  %cmp.not.i = icmp eq i64 %call.i, 1
  br i1 %cmp.not.i, label %_Z4ReadIdET_PN6Assimp8IOStreamE.exit, label %if.then.i

if.then.i:                                        ; preds = %entry
  %exception.i = call ptr @__cxa_allocate_exception(i64 16) #15
  invoke void @_ZN17DeadlyImportErrorC2EPKc(ptr noundef nonnull align 8 dereferenceable(16) %exception.i, ptr noundef nonnull @.str.13)
          to label %invoke.cont.i unwind label %lpad.i

invoke.cont.i:                                    ; preds = %if.then.i
  call void @__cxa_throw(ptr nonnull %exception.i, ptr nonnull @_ZTI17DeadlyImportError, ptr nonnull @_ZN17DeadlyImportErrorD2Ev) #16
  unreachable

lpad.i:                                           ; preds = %if.then.i
  %1 = landingpad { ptr, i32 }
          cleanup
  call void @__cxa_free_exception(ptr %exception.i) #15
  resume { ptr, i32 } %1

_Z4ReadIdET_PN6Assimp8IOStreamE.exit:             ; preds = %entry
  %y.i.i = getelementptr inbounds i8, ptr %agg.result, i64 16
  %2 = load double, ptr %t.i, align 8
  call void @llvm.lifetime.end.p0(i64 8, ptr nonnull %t.i)
  store double %2, ptr %agg.result, align 8
  %call1 = call { <2 x float>, <2 x float> } @_Z4ReadI13aiQuaterniontIfEET_PN6Assimp8IOStreamE(ptr noundef nonnull %stream)
  %3 = extractvalue { <2 x float>, <2 x float> } %call1, 0
  %4 = extractvalue { <2 x float>, <2 x float> } %call1, 1
  store <2 x float> %3, ptr %mValue.i, align 8
  store <2 x float> %4, ptr %y.i.i, align 8
  ret void
}